	.file	"problem05.c"
	.text
	.section .rdata,"dr"
.LC0:
	.ascii "Enter the number :\0"
.LC1:
	.ascii "%d\0"
	.text
	.globl	input
	.def	input;	.scl	2;	.type	32;	.endef
	.seh_proc	input
input:
	pushq	%rbp
	.seh_pushreg	%rbp
	movq	%rsp, %rbp
	.seh_setframe	%rbp, 0
	subq	$48, %rsp
	.seh_stackalloc	48
	.seh_endprologue
	leaq	.LC0(%rip), %rax
	movq	%rax, %rcx
	call	puts
	leaq	-4(%rbp), %rax
	movq	%rax, %rdx
	leaq	.LC1(%rip), %rax
	movq	%rax, %rcx
	call	scanf
	movl	-4(%rbp), %eax
	addq	$48, %rsp
	popq	%rbp
	ret
	.seh_endproc
	.globl	find_gcd
	.def	find_gcd;	.scl	2;	.type	32;	.endef
	.seh_proc	find_gcd
find_gcd:
	pushq	%rbp
	.seh_pushreg	%rbp
	movq	%rsp, %rbp
	.seh_setframe	%rbp, 0
	subq	$48, %rsp
	.seh_stackalloc	48
	.seh_endprologue
	movl	%ecx, 16(%rbp)
	movl	%edx, 24(%rbp)
	movl	16(%rbp), %eax
	cltd
	idivl	24(%rbp)
	movl	%edx, -4(%rbp)
	cmpl	$0, -4(%rbp)
	je	.L4
	movl	-4(%rbp), %edx
	movl	24(%rbp), %eax
	movl	%eax, %ecx
	call	find_gcd
	jmp	.L5
.L4:
	movl	24(%rbp), %eax
.L5:
	addq	$48, %rsp
	popq	%rbp
	ret
	.seh_endproc
	.section .rdata,"dr"
.LC2:
	.ascii "The GCD of %d and %d is %d\0"
	.text
	.globl	output
	.def	output;	.scl	2;	.type	32;	.endef
	.seh_proc	output
output:
	pushq	%rbp
	.seh_pushreg	%rbp
	movq	%rsp, %rbp
	.seh_setframe	%rbp, 0
	subq	$32, %rsp
	.seh_stackalloc	32
	.seh_endprologue
	movl	%ecx, 16(%rbp)
	movl	%edx, 24(%rbp)
	movl	%r8d, 32(%rbp)
	movl	32(%rbp), %edx
	movl	24(%rbp), %eax
	movl	%edx, %r9d
	movl	%eax, %r8d
	movl	16(%rbp), %edx
	leaq	.LC2(%rip), %rax
	movq	%rax, %rcx
	call	printf
	nop
	addq	$32, %rsp
	popq	%rbp
	ret
	.seh_endproc
	.def	__main;	.scl	2;	.type	32;	.endef
	.globl	main
	.def	main;	.scl	2;	.type	32;	.endef
	.seh_proc	main
main:
	pushq	%rbp
	.seh_pushreg	%rbp
	movq	%rsp, %rbp
	.seh_setframe	%rbp, 0
	subq	$48, %rsp
	.seh_stackalloc	48
	.seh_endprologue
	call	__main
	call	input
	movl	%eax, -4(%rbp)
	call	input
	movl	%eax, -8(%rbp)
	movl	-8(%rbp), %edx
	movl	-4(%rbp), %eax
	movl	%eax, %ecx
	call	find_gcd
	movl	%eax, -12(%rbp)
	movl	-12(%rbp), %ecx
	movl	-8(%rbp), %edx
	movl	-4(%rbp), %eax
	movl	%ecx, %r8d
	movl	%eax, %ecx
	call	output
	movl	$0, %eax
	addq	$48, %rsp
	popq	%rbp
	ret
	.seh_endproc
	.ident	"GCC: (GNU) 11.2.0"
	.def	puts;	.scl	2;	.type	32;	.endef
	.def	scanf;	.scl	2;	.type	32;	.endef
	.def	printf;	.scl	2;	.type	32;	.endef
